(lp0
S'poi'
p1
aS'salary'
p2
aS'deferral_payments'
p3
aS'total_payments'
p4
aS'exercised_stock_options'
p5
aS'bonus'
p6
aS'restricted_stock'
p7
aS'total_stock_value'
p8
aS'expenses'
p9
aS'director_fees'
p10
aS'deferred_income'
p11
aS'long_term_incentive'
p12
a.